(dp1
I1
(lp2
(F1
I2
tp3
a(F0.090909090909090912
I4
tp4
a(F0.038461538461538464
I5
tp5
a(F1
I6
tp6
asI2
(lp7
(F1
I1
tp8
a(F0.066666666666666666
I4
tp9
a(F0.038461538461538464
I5
tp10
a(F1
I6
tp11
asI4
(lp12
(F0.090909090909090912
I1
tp13
a(F0.066666666666666666
I2
tp14
a(F0.10000000000000001
I5
tp15
a(F0.10000000000000001
I6
tp16
asI5
(lp17
(F0.038461538461538464
I1
tp18
a(F0.038461538461538464
I2
tp19
a(F0.10000000000000001
I4
tp20
a(F0.058823529411764705
I6
tp21
asI6
(lp22
(F1
I1
tp23
a(F1
I2
tp24
a(F0.10000000000000001
I4
tp25
a(F0.058823529411764705
I5
tp26
as.